target datalayout = "e-m:e-p270:32:32-p271:32:32-p272:64:64-i64:64-i128:128-f80:128-n8:16:32:64-S128"
target triple = "x86_64-pc-linux-gnu"

; Function Attrs: mustprogress nounwind uwtable
define noundef zeroext i1 @_ZN29MLPoliciesStandAloneFunctions37isPrimitiveModalityWorthToBeActivatedEN3vcg20GLMeshAttributesInfo18PRIMITIVE_MODALITYEbbb(i32 noundef %0, i1 noundef zeroext %1, i1 noundef zeroext %2, i1 noundef zeroext %3) #4 align 2 {
  %5 = alloca i1, align 1
  %6 = alloca i32, align 4
  %7 = alloca i8, align 1
  %8 = alloca i8, align 1
  %9 = alloca i8, align 1
  store i32 %0, ptr %6, align 4
  %10 = zext i1 %1 to i8
  store i8 %10, ptr %7, align 1
  %11 = zext i1 %2 to i8
  store i8 %11, ptr %8, align 1
  %12 = zext i1 %3 to i8
  store i8 %12, ptr %9, align 1
  %13 = load i8, ptr %8, align 1
  %14 = trunc i8 %13 to i1
  br i1 %14, label %19, label %15

15:                                               ; preds = %4
  %16 = load i8, ptr %9, align 1
  %17 = trunc i8 %16 to i1
  br i1 %17, label %18, label %19

18:                                               ; preds = %15
  store i1 true, ptr %5, align 1
  br label %30

19:                                               ; preds = %15, %4
  %20 = load i8, ptr %8, align 1
  %21 = trunc i8 %20 to i1
  br i1 %21, label %22, label %29

22:                                               ; preds = %19
  %23 = load i8, ptr %9, align 1
  %24 = trunc i8 %23 to i1
  br i1 %24, label %25, label %29

25:                                               ; preds = %22
  %26 = load i8, ptr %7, align 1
  %27 = trunc i8 %26 to i1
  br i1 %27, label %28, label %29

28:                                               ; preds = %25
  store i1 true, ptr %5, align 1
  br label %30

29:                                               ; preds = %25, %22, %19
  store i1 false, ptr %5, align 1
  br label %30

30:                                               ; preds = %29, %28, %18
  %31 = load i1, ptr %5, align 1
  ret i1 %31
}