; Function Attrs: mustprogress nofree norecurse nosync nounwind willreturn memory(none) uwtable
define noundef zeroext i1 @_ZN29MLPoliciesStandAloneFunctions37isPrimitiveModalityWorthToBeActivatedEN3vcg20GLMeshAttributesInfo18PRIMITIVE_MODALITYEbbb(i32 noundef %0, i1 noundef zeroext %1, i1 noundef zeroext %2, i1 noundef zeroext %3) local_unnamed_addr #15 align 2 {
  %.not = xor i1 %3, true
  %brmerge = or i1 %.not, %2
  br i1 %brmerge, label %5, label %7

5:                                                ; preds = %4
  %6 = and i1 %1, %3
  %brmerge9.demorgan = and i1 %6, %2
  br label %7

7:                                                ; preds = %5, %4
  %.0 = phi i1 [ true, %4 ], [ %brmerge9.demorgan, %5 ]
  ret i1 %.0
}